target datalayout = "e-m:e-p270:32:32-p271:32:32-p272:64:64-i64:64-i128:128-f80:128-n8:16:32:64-S128"
target triple = "x86_64-pc-linux-gnu"

%"class.clang::interp::InterpState" = type { %"class.clang::interp::State.base", %"class.clang::interp::SourceMapper", ptr, ptr, ptr, %"class.clang::interp::DynamicAllocator", ptr, ptr, ptr, ptr, %"class.clang::SourceLocation", ptr, %"class.llvm::SmallVector.6" }
%"class.clang::interp::State.base" = type <{ ptr, i8 }>
%"class.clang::interp::SourceMapper" = type { ptr }
%"class.clang::interp::DynamicAllocator" = type { %"class.llvm::DenseMap", %"class.llvm::BumpPtrAllocatorImpl" }
%"class.llvm::DenseMap" = type <{ ptr, i32, i32, i32, [4 x i8] }>
%"class.llvm::BumpPtrAllocatorImpl" = type { ptr, ptr, %"class.llvm::SmallVector", %"class.llvm::SmallVector.1", i64, i64 }
%"class.llvm::SmallVector" = type { %"class.llvm::SmallVectorImpl", %"struct.llvm::SmallVectorStorage" }
%"class.llvm::SmallVectorImpl" = type { %"class.llvm::SmallVectorTemplateBase" }
%"class.llvm::SmallVectorTemplateBase" = type { %"class.llvm::SmallVectorTemplateCommon" }
%"class.llvm::SmallVectorTemplateCommon" = type { %"class.llvm::SmallVectorBase" }
%"class.llvm::SmallVectorBase" = type { ptr, i32, i32 }
%"struct.llvm::SmallVectorStorage" = type { [32 x i8] }
%"class.llvm::SmallVector.1" = type { %"class.llvm::SmallVectorImpl.2" }
%"class.llvm::SmallVectorImpl.2" = type { %"class.llvm::SmallVectorTemplateBase.3" }
%"class.llvm::SmallVectorTemplateBase.3" = type { %"class.llvm::SmallVectorTemplateCommon.4" }
%"class.llvm::SmallVectorTemplateCommon.4" = type { %"class.llvm::SmallVectorBase" }
%"class.clang::SourceLocation" = type { i32 }
%"class.llvm::SmallVector.6" = type { %"class.llvm::SmallVectorImpl.7", %"struct.llvm::SmallVectorStorage.10" }
%"class.llvm::SmallVectorImpl.7" = type { %"class.llvm::SmallVectorTemplateBase.8" }
%"class.llvm::SmallVectorTemplateBase.8" = type { %"class.llvm::SmallVectorTemplateCommon.9" }
%"class.llvm::SmallVectorTemplateCommon.9" = type { %"class.llvm::SmallVectorBase" }
%"struct.llvm::SmallVectorStorage.10" = type { [48 x i8] }
%"class.clang::interp::DeadBlock" = type { ptr, ptr, ptr, %"class.clang::interp::Block" }
%"class.clang::interp::Block" = type { i32, ptr, %"class.std::optional", i8, i8, i8, i8, i8, ptr }
%"class.std::optional" = type { %"struct.std::_Optional_base" }
%"struct.std::_Optional_base" = type { %"struct.std::_Optional_payload" }
%"struct.std::_Optional_payload" = type { %"struct.std::_Optional_payload_base.base", [3 x i8] }
%"struct.std::_Optional_payload_base.base" = type <{ %"union.std::_Optional_payload_base<unsigned int>::_Storage", i8 }>
%"union.std::_Optional_payload_base<unsigned int>::_Storage" = type { i32 }
%"struct.clang::interp::Descriptor" = type { %"class.llvm::PointerUnion", i32, i32, i32, i32, ptr, ptr, %"class.std::optional.55", i8, i8, i8, i8, i8, ptr, ptr, ptr }
%"class.llvm::PointerUnion" = type { %"class.llvm::pointer_union_detail::PointerUnionMembers" }
%"class.llvm::pointer_union_detail::PointerUnionMembers" = type { %"class.llvm::pointer_union_detail::PointerUnionMembers.51" }
%"class.llvm::pointer_union_detail::PointerUnionMembers.51" = type { %"class.llvm::pointer_union_detail::PointerUnionMembers.52" }
%"class.llvm::pointer_union_detail::PointerUnionMembers.52" = type { %"class.llvm::PointerIntPair.53" }
%"class.llvm::PointerIntPair.53" = type { %"struct.llvm::detail::PunnedPointer.54" }
%"struct.llvm::detail::PunnedPointer.54" = type { [8 x i8] }
%"class.std::optional.55" = type { %"struct.std::_Optional_base.56" }
%"struct.std::_Optional_base.56" = type { %"struct.std::_Optional_payload.58" }
%"struct.std::_Optional_payload.58" = type { %"struct.std::_Optional_payload_base.base.60", [3 x i8] }
%"struct.std::_Optional_payload_base.base.60" = type <{ %"union.std::_Optional_payload_base<clang::interp::PrimType>::_Storage", i8 }>
%"union.std::_Optional_payload_base<clang::interp::PrimType>::_Storage" = type { i32 }

; Function Attrs: mustprogress nounwind uwtable
define linkonce_odr hidden noundef i32 @_ZNK5clang6interp10Descriptor12getAllocSizeEv(ptr noundef nonnull align 8 dereferenceable(80) %0) #0 comdat align 2 {
  %2 = alloca ptr, align 8
  store ptr %0, ptr %2, align 8
  %3 = load ptr, ptr %2, align 8
  %4 = getelementptr inbounds nuw %"struct.clang::interp::Descriptor", ptr %3, i32 0, i32 4
  %5 = load i32, ptr %4, align 4
  ret i32 %5
}

; Function Attrs: mustprogress nounwind uwtable
define linkonce_odr hidden void @_ZN5clang6interp5Block10invokeDtorEv(ptr noundef nonnull align 8 dereferenceable(40) %0) #0 comdat align 2 {
  %2 = alloca ptr, align 8
  store ptr %0, ptr %2, align 8
  %3 = load ptr, ptr %2, align 8
  %4 = getelementptr inbounds nuw %"class.clang::interp::Block", ptr %3, i32 0, i32 8
  %5 = load ptr, ptr %4, align 8
  %6 = getelementptr inbounds nuw %"struct.clang::interp::Descriptor", ptr %5, i32 0, i32 14
  %7 = load ptr, ptr %6, align 8
  %8 = icmp ne ptr %7, null
  br i1 %8, label %9, label %17

9:                                                ; preds = %1
  %10 = getelementptr inbounds nuw %"class.clang::interp::Block", ptr %3, i32 0, i32 8
  %11 = load ptr, ptr %10, align 8
  %12 = getelementptr inbounds nuw %"struct.clang::interp::Descriptor", ptr %11, i32 0, i32 14
  %13 = load ptr, ptr %12, align 8
  %14 = call noundef ptr @_ZN5clang6interp5Block4dataEv(ptr noundef nonnull align 8 dereferenceable(40) %3)
  %15 = getelementptr inbounds nuw %"class.clang::interp::Block", ptr %3, i32 0, i32 8
  %16 = load ptr, ptr %15, align 8
  call void %13(ptr noundef %3, ptr noundef %14, ptr noundef %16)
  br label %17

17:                                               ; preds = %9, %1
  %18 = getelementptr inbounds nuw %"class.clang::interp::Block", ptr %3, i32 0, i32 6
  store i8 0, ptr %18, align 1
  ret void
}

; Function Attrs: mustprogress nounwind uwtable
define linkonce_odr hidden noundef ptr @_ZN5clang6interp9DeadBlock7rawDataEv(ptr noundef nonnull align 8 dereferenceable(64) %0) #0 comdat align 2 {
  %2 = alloca ptr, align 8
  store ptr %0, ptr %2, align 8
  %3 = load ptr, ptr %2, align 8
  %4 = getelementptr inbounds nuw %"class.clang::interp::DeadBlock", ptr %3, i32 0, i32 3
  %5 = call noundef ptr @_ZN5clang6interp5Block7rawDataEv(ptr noundef nonnull align 8 dereferenceable(40) %4)
  ret ptr %5
}

; Function Attrs: mustprogress nounwind uwtable
define linkonce_odr hidden noundef i32 @_ZNK5clang6interp10Descriptor15getMetadataSizeEv(ptr noundef nonnull align 8 dereferenceable(80) %0) #0 comdat align 2 {
  %2 = alloca ptr, align 8
  store ptr %0, ptr %2, align 8
  %3 = load ptr, ptr %2, align 8
  %4 = getelementptr inbounds nuw %"struct.clang::interp::Descriptor", ptr %3, i32 0, i32 3
  %5 = load i32, ptr %4, align 8
  ret i32 %5
}

; Function Attrs: mustprogress nounwind uwtable
define linkonce_odr hidden noundef ptr @_ZN5clang6interp9DeadBlock4dataEv(ptr noundef nonnull align 8 dereferenceable(64) %0) #0 comdat align 2 {
  %2 = alloca ptr, align 8
  store ptr %0, ptr %2, align 8
  %3 = load ptr, ptr %2, align 8
  %4 = getelementptr inbounds nuw %"class.clang::interp::DeadBlock", ptr %3, i32 0, i32 3
  %5 = call noundef ptr @_ZN5clang6interp5Block4dataEv(ptr noundef nonnull align 8 dereferenceable(40) %4)
  ret ptr %5
}

; Function Attrs: mustprogress nounwind uwtable
define linkonce_odr hidden noundef ptr @_ZN5clang6interp5Block4dataEv(ptr noundef nonnull align 8 dereferenceable(40) %0) #0 comdat align 2 {
  %2 = alloca ptr, align 8
  %3 = alloca i64, align 8
  store ptr %0, ptr %2, align 8
  %4 = load ptr, ptr %2, align 8
  %5 = getelementptr inbounds nuw %"class.clang::interp::Block", ptr %4, i32 0, i32 8
  %6 = load ptr, ptr %5, align 8
  %7 = call noundef i32 @_ZNK5clang6interp10Descriptor15getMetadataSizeEv(ptr noundef nonnull align 8 dereferenceable(80) %6)
  %8 = zext i32 %7 to i64
  store i64 %8, ptr %3, align 8
  %9 = call noundef ptr @_ZN5clang6interp5Block7rawDataEv(ptr noundef nonnull align 8 dereferenceable(40) %4)
  %10 = load i64, ptr %3, align 8
  %11 = getelementptr inbounds i8, ptr %9, i64 %10
  ret ptr %11
}

; Function Attrs: mustprogress nounwind uwtable
define linkonce_odr hidden noundef ptr @_ZN5clang6interp5Block7rawDataEv(ptr noundef nonnull align 8 dereferenceable(40) %0) #0 comdat align 2 {
  %2 = alloca ptr, align 8
  store ptr %0, ptr %2, align 8
  %3 = load ptr, ptr %2, align 8
  %4 = getelementptr inbounds i8, ptr %3, i64 40
  ret ptr %4
}

; Function Attrs: mustprogress nounwind uwtable
define linkonce_odr hidden noundef i32 @_ZNK5clang6interp5Block7getSizeEv(ptr noundef nonnull align 8 dereferenceable(40) %0) #0 comdat align 2 {
  %2 = alloca ptr, align 8
  store ptr %0, ptr %2, align 8
  %3 = load ptr, ptr %2, align 8
  %4 = getelementptr inbounds nuw %"class.clang::interp::Block", ptr %3, i32 0, i32 8
  %5 = load ptr, ptr %4, align 8
  %6 = call noundef i32 @_ZNK5clang6interp10Descriptor12getAllocSizeEv(ptr noundef nonnull align 8 dereferenceable(80) %5)
  ret i32 %6
}

; Function Attrs: mustprogress nounwind uwtable
define linkonce_odr hidden noundef zeroext i1 @_ZNK5clang6interp5Block11hasPointersEv(ptr noundef nonnull align 8 dereferenceable(40) %0) #0 comdat align 2 {
  %2 = alloca ptr, align 8
  store ptr %0, ptr %2, align 8
  %3 = load ptr, ptr %2, align 8
  %4 = getelementptr inbounds nuw %"class.clang::interp::Block", ptr %3, i32 0, i32 1
  %5 = load ptr, ptr %4, align 8
  %6 = icmp ne ptr %5, null
  ret i1 %6
}

; Function Attrs: mustprogress nounwind uwtable
define linkonce_odr hidden noundef ptr @_ZNK5clang6interp5Block13getDescriptorEv(ptr noundef nonnull align 8 dereferenceable(40) %0) #0 comdat align 2 {
  %2 = alloca ptr, align 8
  store ptr %0, ptr %2, align 8
  %3 = load ptr, ptr %2, align 8
  %4 = getelementptr inbounds nuw %"class.clang::interp::Block", ptr %3, i32 0, i32 8
  %5 = load ptr, ptr %4, align 8
  ret ptr %5
}

; Function Attrs: mustprogress nounwind uwtable
define dso_local void @_ZN5clang6interp11InterpState10deallocateEPNS0_5BlockE(ptr noundef nonnull align 8 dereferenceable(280) %0, ptr noundef %1) #0 align 2 {
  %3 = alloca ptr, align 8
  %4 = alloca ptr, align 8
  %5 = alloca ptr, align 8
  %6 = alloca i64, align 8
  %7 = alloca ptr, align 8
  %8 = alloca ptr, align 8
  store ptr %0, ptr %3, align 8
  store ptr %1, ptr %4, align 8
  %9 = load ptr, ptr %3, align 8
  %10 = load ptr, ptr %4, align 8
  %11 = call noundef ptr @_ZNK5clang6interp5Block13getDescriptorEv(ptr noundef nonnull align 8 dereferenceable(40) %10)
  store ptr %11, ptr %5, align 8
  %12 = load ptr, ptr %4, align 8
  %13 = call noundef zeroext i1 @_ZNK5clang6interp5Block11hasPointersEv(ptr noundef nonnull align 8 dereferenceable(40) %12)
  br i1 %13, label %14, label %73

14:                                               ; preds = %2
  %15 = load ptr, ptr %4, align 8
  %16 = call noundef i32 @_ZNK5clang6interp5Block7getSizeEv(ptr noundef nonnull align 8 dereferenceable(40) %15)
  %17 = zext i32 %16 to i64
  store i64 %17, ptr %6, align 8
  %18 = load i64, ptr %6, align 8
  %19 = add i64 64, %18
  %20 = call noalias ptr @malloc(i64 noundef %19) #13
  store ptr %20, ptr %7, align 8
  %21 = load ptr, ptr %7, align 8
  %22 = getelementptr inbounds nuw %"class.clang::interp::InterpState", ptr %9, i32 0, i32 3
  %23 = load ptr, ptr %4, align 8
  call void @_ZN5clang6interp9DeadBlockC1ERPS1_PNS0_5BlockE(ptr noundef nonnull align 8 dereferenceable(64) %21, ptr noundef nonnull align 8 dereferenceable(8) %22, ptr noundef %23)
  store ptr %21, ptr %8, align 8
  %24 = load ptr, ptr %8, align 8
  %25 = getelementptr inbounds nuw %"class.clang::interp::DeadBlock", ptr %24, i32 0, i32 3
  %26 = call noundef ptr @_ZN5clang6interp5Block7rawDataEv(ptr noundef nonnull align 8 dereferenceable(40) %25)
  %27 = load ptr, ptr %8, align 8
  %28 = getelementptr inbounds nuw %"class.clang::interp::DeadBlock", ptr %27, i32 0, i32 3
  %29 = call noundef i32 @_ZNK5clang6interp5Block7getSizeEv(ptr noundef nonnull align 8 dereferenceable(40) %28)
  %30 = zext i32 %29 to i64
  call void @llvm.memset.p0.i64(ptr align 1 %26, i8 0, i64 %30, i1 false)
  %31 = load ptr, ptr %4, align 8
  %32 = getelementptr inbounds nuw %"class.clang::interp::Block", ptr %31, i32 0, i32 6
  %33 = load i8, ptr %32, align 1
  %34 = trunc i8 %33 to i1
  br i1 %34, label %35, label %62

35:                                               ; preds = %14
  %36 = load ptr, ptr %5, align 8
  %37 = getelementptr inbounds nuw %"struct.clang::interp::Descriptor", ptr %36, i32 0, i32 15
  %38 = load ptr, ptr %37, align 8
  %39 = icmp ne ptr %38, null
  br i1 %39, label %40, label %62

40:                                               ; preds = %35
  %41 = load ptr, ptr %5, align 8
  %42 = getelementptr inbounds nuw %"struct.clang::interp::Descriptor", ptr %41, i32 0, i32 15
  %43 = load ptr, ptr %42, align 8
  %44 = load ptr, ptr %4, align 8
  %45 = load ptr, ptr %4, align 8
  %46 = call noundef ptr @_ZN5clang6interp5Block4dataEv(ptr noundef nonnull align 8 dereferenceable(40) %45)
  %47 = load ptr, ptr %8, align 8
  %48 = call noundef ptr @_ZN5clang6interp9DeadBlock4dataEv(ptr noundef nonnull align 8 dereferenceable(64) %47)
  %49 = load ptr, ptr %5, align 8
  call void %43(ptr noundef %44, ptr noundef %46, ptr noundef %48, ptr noundef %49)
  %50 = load ptr, ptr %5, align 8
  %51 = call noundef i32 @_ZNK5clang6interp10Descriptor15getMetadataSizeEv(ptr noundef nonnull align 8 dereferenceable(80) %50)
  %52 = icmp ugt i32 %51, 0
  br i1 %52, label %53, label %61

53:                                               ; preds = %40
  %54 = load ptr, ptr %8, align 8
  %55 = call noundef ptr @_ZN5clang6interp9DeadBlock7rawDataEv(ptr noundef nonnull align 8 dereferenceable(64) %54)
  %56 = load ptr, ptr %4, align 8
  %57 = call noundef ptr @_ZN5clang6interp5Block7rawDataEv(ptr noundef nonnull align 8 dereferenceable(40) %56)
  %58 = load ptr, ptr %5, align 8
  %59 = call noundef i32 @_ZNK5clang6interp10Descriptor15getMetadataSizeEv(ptr noundef nonnull align 8 dereferenceable(80) %58)
  %60 = zext i32 %59 to i64
  call void @llvm.memcpy.p0.p0.i64(ptr align 1 %55, ptr align 1 %57, i64 %60, i1 false)
  br label %61

61:                                               ; preds = %53, %40
  br label %62

62:                                               ; preds = %61, %35, %14
  %63 = load ptr, ptr %4, align 8
  %64 = getelementptr inbounds nuw %"class.clang::interp::Block", ptr %63, i32 0, i32 6
  %65 = load i8, ptr %64, align 1
  %66 = trunc i8 %65 to i1
  %67 = load ptr, ptr %8, align 8
  %68 = getelementptr inbounds nuw %"class.clang::interp::DeadBlock", ptr %67, i32 0, i32 3
  %69 = getelementptr inbounds nuw %"class.clang::interp::Block", ptr %68, i32 0, i32 6
  %70 = zext i1 %66 to i8
  store i8 %70, ptr %69, align 1
  %71 = load ptr, ptr %4, align 8
  %72 = getelementptr inbounds nuw %"class.clang::interp::Block", ptr %71, i32 0, i32 6
  store i8 0, ptr %72, align 1
  br label %81

73:                                               ; preds = %2
  %74 = load ptr, ptr %4, align 8
  %75 = getelementptr inbounds nuw %"class.clang::interp::Block", ptr %74, i32 0, i32 6
  %76 = load i8, ptr %75, align 1
  %77 = trunc i8 %76 to i1
  br i1 %77, label %78, label %80

78:                                               ; preds = %73
  %79 = load ptr, ptr %4, align 8
  call void @_ZN5clang6interp5Block10invokeDtorEv(ptr noundef nonnull align 8 dereferenceable(40) %79)
  br label %80

80:                                               ; preds = %78, %73
  br label %81

81:                                               ; preds = %80, %62
  ret void
}