; Function Attrs: mustprogress nounwind uwtable
define dso_local void @_ZN5clang6interp11InterpState10deallocateEPNS0_5BlockE(ptr noundef nonnull align 8 dereferenceable(280) %0, ptr noundef %1) local_unnamed_addr #0 align 2 {
  %3 = getelementptr inbounds nuw i8, ptr %1, i64 32
  %4 = load ptr, ptr %3, align 8
  %5 = getelementptr inbounds nuw i8, ptr %1, i64 8
  %6 = load ptr, ptr %5, align 8
  %.not25 = icmp eq ptr %6, null
  br i1 %.not25, label %45, label %7

7:                                                ; preds = %2
  %8 = getelementptr inbounds nuw i8, ptr %4, i64 20
  %9 = load i32, ptr %8, align 4
  %10 = zext i32 %9 to i64
  %11 = add nuw nsw i64 %10, 64
  %12 = tail call noalias ptr @malloc(i64 noundef %11) #14
  %13 = getelementptr inbounds nuw i8, ptr %0, i64 32
  tail call void @_ZN5clang6interp9DeadBlockC1ERPS1_PNS0_5BlockE(ptr noundef nonnull align 8 dereferenceable(64) %12, ptr noundef nonnull align 8 dereferenceable(8) %13, ptr noundef nonnull %1) #12
  %14 = getelementptr inbounds i8, ptr %12, i64 64
  %15 = getelementptr inbounds i8, ptr %12, i64 56
  %16 = load ptr, ptr %15, align 8
  %17 = getelementptr inbounds nuw i8, ptr %16, i64 20
  %18 = load i32, ptr %17, align 4
  %19 = zext i32 %18 to i64
  tail call void @llvm.memset.p0.i64(ptr nonnull align 1 %14, i8 0, i64 %19, i1 false)
  %20 = getelementptr inbounds nuw i8, ptr %1, i64 27
  %21 = load i8, ptr %20, align 1
  %22 = trunc i8 %21 to i1
  br i1 %22, label %23, label %41

23:                                               ; preds = %7
  %24 = getelementptr inbounds nuw i8, ptr %4, i64 72
  %25 = load ptr, ptr %24, align 8
  %.not = icmp eq ptr %25, null
  br i1 %.not, label %41, label %26

26:                                               ; preds = %23
  %27 = load ptr, ptr %3, align 8
  %28 = getelementptr inbounds nuw i8, ptr %27, i64 16
  %29 = load i32, ptr %28, align 8
  %30 = zext i32 %29 to i64
  %31 = getelementptr inbounds i8, ptr %1, i64 40
  %32 = getelementptr inbounds i8, ptr %31, i64 %30
  %33 = getelementptr inbounds nuw i8, ptr %16, i64 16
  %34 = load i32, ptr %33, align 8
  %35 = zext i32 %34 to i64
  %36 = getelementptr inbounds i8, ptr %14, i64 %35
  tail call void %25(ptr noundef nonnull %1, ptr noundef nonnull %32, ptr noundef nonnull %36, ptr noundef nonnull %4) #12
  %37 = getelementptr inbounds nuw i8, ptr %4, i64 16
  %38 = load i32, ptr %37, align 8
  %.not24 = icmp eq i32 %38, 0
  br i1 %.not24, label %41, label %39

39:                                               ; preds = %26
  %40 = zext i32 %38 to i64
  tail call void @llvm.memcpy.p0.p0.i64(ptr nonnull align 1 %14, ptr nonnull align 1 %31, i64 %40, i1 false)
  br label %41

41:                                               ; preds = %26, %39, %23, %7
  %42 = load i8, ptr %20, align 1
  %43 = getelementptr inbounds i8, ptr %12, i64 51
  %44 = and i8 %42, 1
  store i8 %44, ptr %43, align 1
  br label %.sink.split

45:                                               ; preds = %2
  %46 = getelementptr inbounds nuw i8, ptr %1, i64 27
  %47 = load i8, ptr %46, align 1
  %48 = trunc i8 %47 to i1
  br i1 %48, label %49, label %58

49:                                               ; preds = %45
  %50 = getelementptr inbounds nuw i8, ptr %4, i64 64
  %51 = load ptr, ptr %50, align 8
  %.not.i = icmp eq ptr %51, null
  br i1 %.not.i, label %.sink.split, label %52

52:                                               ; preds = %49
  %53 = getelementptr inbounds nuw i8, ptr %4, i64 16
  %54 = load i32, ptr %53, align 8
  %55 = zext i32 %54 to i64
  %56 = getelementptr inbounds i8, ptr %1, i64 40
  %57 = getelementptr inbounds i8, ptr %56, i64 %55
  tail call void %51(ptr noundef nonnull %1, ptr noundef nonnull %57, ptr noundef nonnull %4) #12
  br label %.sink.split

.sink.split:                                      ; preds = %52, %49, %41
  %.sink = phi ptr [ %20, %41 ], [ %46, %49 ], [ %46, %52 ]
  store i8 0, ptr %.sink, align 1
  br label %58

58:                                               ; preds = %.sink.split, %45
  ret void
}